target datalayout = "e-m:e-p270:32:32-p271:32:32-p272:64:64-i64:64-i128:128-f80:128-n8:16:32:64-S128"
target triple = "x86_64-unknown-linux-gnu"

%"struct.std::atomic" = type { %"struct.std::__atomic_base" }
%"struct.std::__atomic_base" = type { i8 }
%"class.grpc_core::Call" = type { ptr, %"class.grpc_core::RefCountedPtr", ptr, %"struct.std::atomic.0", ptr, %"class.grpc_core::Timestamp", i8, i8, i32, %"class.grpc_core::CompressionAlgorithmSet", i32, %"class.absl::lts_20230802::Mutex", %"class.grpc_core::Slice", double }
%"class.grpc_core::RefCountedPtr" = type { ptr }
%"struct.std::atomic.0" = type { %"struct.std::__atomic_base.1" }
%"struct.std::__atomic_base.1" = type { ptr }
%"class.grpc_core::Timestamp" = type { i64 }
%"class.grpc_core::CompressionAlgorithmSet" = type { %"class.grpc_core::BitSet" }
%"class.grpc_core::BitSet" = type { [1 x i8] }
%"class.absl::lts_20230802::Mutex" = type { %"struct.std::atomic.2" }
%"struct.std::atomic.2" = type { %"struct.std::__atomic_base.3" }
%"struct.std::__atomic_base.3" = type { i64 }
%"class.grpc_core::Slice" = type { %"class.grpc_core::slice_detail::BaseSlice" }
%"class.grpc_core::slice_detail::BaseSlice" = type { %struct.grpc_slice }
%struct.grpc_slice = type { ptr, %"union.grpc_slice::grpc_slice_data" }
%"union.grpc_slice::grpc_slice_data" = type { %"struct.grpc_slice::grpc_slice_data::grpc_slice_refcounted", [8 x i8] }
%"struct.grpc_slice::grpc_slice_data::grpc_slice_refcounted" = type { i64, ptr }
%"class.absl::lts_20230802::Status" = type { i64 }
%"class.absl::lts_20230802::MutexLock" = type { ptr }
%"struct.std::atomic.4" = type { %"struct.std::__atomic_base.5" }
%"struct.std::__atomic_base.5" = type { i64 }
%struct.grpc_transport_stream_op_batch_payload = type { %struct.anon.122, %struct.anon.123, %struct.anon.124, %struct.anon.125, %struct.anon.126, %struct.anon.127, %struct.anon.128, ptr }
%struct.anon.122 = type { ptr }
%struct.anon.123 = type { ptr, ptr }
%struct.anon.124 = type <{ ptr, i32, i8, [3 x i8] }>
%struct.anon.125 = type { ptr, ptr, ptr }
%struct.anon.126 = type { ptr, ptr, ptr, ptr }
%struct.anon.127 = type { ptr, ptr, ptr }
%struct.anon.128 = type <{ %"class.absl::lts_20230802::Status", i8, [7 x i8] }>
%struct.grpc_call_stats = type { %struct.grpc_transport_stream_stats, %struct.gpr_timespec }
%struct.grpc_transport_stream_stats = type { %struct.grpc_transport_one_way_stats, %struct.grpc_transport_one_way_stats, %struct.gpr_timespec }
%struct.grpc_transport_one_way_stats = type { i64, i64, i64 }
%struct.gpr_timespec = type { i64, i32, i32 }
%struct.grpc_call_context_element = type { ptr, ptr }
%"class.grpc_core::Orphanable" = type { ptr }
%struct.grpc_cq_completion = type { %"class.grpc_core::ManualConstructor", ptr, ptr, ptr, i64 }
%"class.grpc_core::ManualConstructor" = type { [8 x i8] }
%"class.grpc_core::PromiseBasedCall" = type { %"class.grpc_core::Call", %"class.grpc_core::Party", %"class.grpc_event_engine::experimental::EventEngine::Closure", %"class.grpc_core::CallContext", %"struct.std::atomic.4", [8 x %struct.grpc_call_context_element], ptr, [6 x %"union.grpc_core::PromiseBasedCall::CompletionInfo"], %struct.grpc_call_stats, %"class.grpc_core::Slice", i32, %"class.grpc_core::CallFinalization", %"class.absl::lts_20230802::Mutex", %"class.grpc_core::Timestamp", %"struct.grpc_event_engine::experimental::EventEngine::TaskHandle", %"class.grpc_core::ExternallyObservableLatch", %"struct.std::atomic.274", %"struct.std::atomic", %"class.grpc_core::IntraActivityWaiter", ptr, %struct.grpc_transport_stream_op_batch_payload }
%"class.grpc_core::Party" = type { %"class.grpc_core::Activity", %"class.grpc_core::Wakeable", %"class.grpc_core::PartySyncUsingAtomics", ptr, i8, [16 x %"struct.std::atomic.270"] }
%"class.grpc_core::Activity" = type { %"class.grpc_core::Orphanable" }
%"class.grpc_core::Wakeable" = type { ptr }
%"class.grpc_core::PartySyncUsingAtomics" = type { %"struct.std::atomic.4" }
%"struct.std::atomic.270" = type { %"struct.std::__atomic_base.271" }
%"struct.std::__atomic_base.271" = type { ptr }
%"class.grpc_event_engine::experimental::EventEngine::Closure" = type { ptr }
%"class.grpc_core::CallContext" = type <{ %struct.grpc_call_stats, ptr, double, i8, [7 x i8] }>
%"union.grpc_core::PromiseBasedCall::CompletionInfo" = type { %struct.grpc_cq_completion }
%"class.grpc_core::CallFinalization" = type { ptr }
%"struct.grpc_event_engine::experimental::EventEngine::TaskHandle" = type { [2 x i64] }
%"class.grpc_core::ExternallyObservableLatch" = type { %"struct.std::atomic", %"class.grpc_core::IntraActivityWaiter" }
%"struct.std::atomic.274" = type { %"struct.std::__atomic_base.275" }
%"struct.std::__atomic_base.275" = type { i8 }
%"class.grpc_core::IntraActivityWaiter" = type { i16 }

; Function Attrs: mustprogress nounwind uwtable
define linkonce_odr void @_ZN4absl12lts_202308029MutexLockD2Ev(ptr noundef nonnull align 8 dereferenceable(8) %this) unnamed_addr #5 comdat align 2 personality ptr @__gxx_personality_v0 {
entry:
  %this.addr = alloca ptr, align 8
  store ptr %this, ptr %this.addr, align 8
  %this1 = load ptr, ptr %this.addr, align 8
  %mu_ = getelementptr inbounds %"class.absl::lts_20230802::MutexLock", ptr %this1, i32 0, i32 0
  %0 = load ptr, ptr %mu_, align 8
  invoke void @_ZN4absl12lts_202308025Mutex6UnlockEv(ptr noundef nonnull align 8 dereferenceable(8) %0)
          to label %invoke.cont unwind label %terminate.lpad

invoke.cont:                                      ; preds = %entry
  ret void

terminate.lpad:                                   ; preds = %entry
  %1 = landingpad { ptr, i32 }
          catch ptr null
  %2 = extractvalue { ptr, i32 } %1, 0
  call void @__clang_call_terminate(ptr %2) #18
  unreachable
}

; Function Attrs: mustprogress uwtable
define linkonce_odr void @_ZN4absl12lts_202308029MutexLockC2EPNS0_5MutexE(ptr noundef nonnull align 8 dereferenceable(8) %this, ptr noundef %mu) unnamed_addr #4 comdat align 2 {
entry:
  %this.addr = alloca ptr, align 8
  %mu.addr = alloca ptr, align 8
  store ptr %this, ptr %this.addr, align 8
  store ptr %mu, ptr %mu.addr, align 8
  %this1 = load ptr, ptr %this.addr, align 8
  %mu_ = getelementptr inbounds %"class.absl::lts_20230802::MutexLock", ptr %this1, i32 0, i32 0
  %0 = load ptr, ptr %mu.addr, align 8
  store ptr %0, ptr %mu_, align 8
  %mu_2 = getelementptr inbounds %"class.absl::lts_20230802::MutexLock", ptr %this1, i32 0, i32 0
  %1 = load ptr, ptr %mu_2, align 8
  call void @_ZN4absl12lts_202308025Mutex4LockEv(ptr noundef nonnull align 8 dereferenceable(8) %1)
  ret void
}

; Function Attrs: mustprogress uwtable
define linkonce_odr i64 @_ZN9grpc_core16PromiseBasedCall8deadlineEv(ptr noundef nonnull align 8 dereferenceable(1096) %this) #4 comdat align 2 {
entry:
  %retval = alloca %"class.grpc_core::Timestamp", align 8
  %this.addr = alloca ptr, align 8
  %lock = alloca %"class.absl::lts_20230802::MutexLock", align 8
  store ptr %this, ptr %this.addr, align 8
  %this1 = load ptr, ptr %this.addr, align 8
  %deadline_mu_ = getelementptr inbounds %"class.grpc_core::PromiseBasedCall", ptr %this1, i32 0, i32 12
  call void @_ZN4absl12lts_202308029MutexLockC2EPNS0_5MutexE(ptr noundef nonnull align 8 dereferenceable(8) %lock, ptr noundef %deadline_mu_)
  %deadline_ = getelementptr inbounds %"class.grpc_core::PromiseBasedCall", ptr %this1, i32 0, i32 13
  call void @llvm.memcpy.p0.p0.i64(ptr align 8 %retval, ptr align 8 %deadline_, i64 8, i1 false)
  call void @_ZN4absl12lts_202308029MutexLockD2Ev(ptr noundef nonnull align 8 dereferenceable(8) %lock) #3
  %coerce.dive = getelementptr inbounds %"class.grpc_core::Timestamp", ptr %retval, i32 0, i32 0
  %0 = load i64, ptr %coerce.dive, align 8
  ret i64 %0
}

; Function Attrs: mustprogress uwtable
define i64 @_ZNK9grpc_core11CallContext8deadlineEv(ptr noundef nonnull align 8 dereferenceable(97) %this) #4 align 2 {
entry:
  %retval = alloca %"class.grpc_core::Timestamp", align 8
  %this.addr = alloca ptr, align 8
  store ptr %this, ptr %this.addr, align 8
  %this1 = load ptr, ptr %this.addr, align 8
  %call_ = getelementptr inbounds %"class.grpc_core::CallContext", ptr %this1, i32 0, i32 1
  %0 = load ptr, ptr %call_, align 8
  %call = call i64 @_ZN9grpc_core16PromiseBasedCall8deadlineEv(ptr noundef nonnull align 8 dereferenceable(1096) %0)
  %coerce.dive = getelementptr inbounds %"class.grpc_core::Timestamp", ptr %retval, i32 0, i32 0
  store i64 %call, ptr %coerce.dive, align 8
  %coerce.dive2 = getelementptr inbounds %"class.grpc_core::Timestamp", ptr %retval, i32 0, i32 0
  %1 = load i64, ptr %coerce.dive2, align 8
  ret i64 %1
}