; Function Attrs: mustprogress uwtable
define i64 @_ZNK9grpc_core11CallContext8deadlineEv(ptr nocapture noundef nonnull readonly align 8 dereferenceable(97) %this) local_unnamed_addr #3 align 2 personality ptr @__gxx_personality_v0 {
entry:
  %call_ = getelementptr inbounds i8, ptr %this, i64 80
  %0 = load ptr, ptr %call_, align 8
  %deadline_mu_.i = getelementptr inbounds i8, ptr %0, i64 904
  tail call void @_ZN4absl12lts_202308025Mutex4LockEv(ptr noundef nonnull align 8 dereferenceable(8) %deadline_mu_.i)
  %deadline_.i = getelementptr inbounds i8, ptr %0, i64 912
  %retval.sroa.0.0.copyload.i = load i64, ptr %deadline_.i, align 8
  invoke void @_ZN4absl12lts_202308025Mutex6UnlockEv(ptr noundef nonnull align 8 dereferenceable(8) %deadline_mu_.i)
          to label %_ZN9grpc_core16PromiseBasedCall8deadlineEv.exit unwind label %terminate.lpad.i.i

terminate.lpad.i.i:                               ; preds = %entry
  %1 = landingpad { ptr, i32 }
          catch ptr null
  %2 = extractvalue { ptr, i32 } %1, 0
  tail call void @__clang_call_terminate(ptr %2) #30
  unreachable

_ZN9grpc_core16PromiseBasedCall8deadlineEv.exit:  ; preds = %entry
  ret i64 %retval.sroa.0.0.copyload.i
}